; Function Attrs: mustprogress nounwind uwtable
define hidden void @_ZN24ShenandoahEvacOOMHandler17unregister_threadEP6Thread(ptr nocapture noundef nonnull readonly align 8 dereferenceable(80) %0, ptr noundef %1) local_unnamed_addr #1 align 2 {
  %3 = getelementptr inbounds i8, ptr %1, i64 42
  %4 = load i8, ptr %3, align 2
  %5 = trunc i8 %4 to i1
  br i1 %5, label %24, label %6

6:                                                ; preds = %2
  %7 = ptrtoint ptr %1 to i64
  %8 = lshr i64 %7, 33
  %9 = xor i64 %8, %7
  %10 = mul i64 %9, -49064778989728563
  %11 = lshr i64 %10, 33
  %12 = xor i64 %11, %10
  %13 = mul i64 %12, -4265267296055464877
  %14 = lshr i64 %13, 33
  %15 = xor i64 %14, %13
  %16 = getelementptr inbounds i8, ptr %0, i64 72
  %17 = load ptr, ptr %16, align 8
  %18 = load i32, ptr %0, align 8
  %19 = add nsw i32 %18, -1
  %20 = sext i32 %19 to i64
  %21 = and i64 %15, %20
  %22 = getelementptr inbounds %class.ShenandoahEvacOOMCounter, ptr %17, i64 %21
  %23 = tail call noundef i32 asm sideeffect "lock xaddl $0,($2)", "=r,0,r,~{cc},~{memory},~{dirflag},~{fpsr},~{flags}"(i32 -1, ptr nonnull %22) #8, !srcloc !6
  br label %25

24:                                               ; preds = %2
  store i8 0, ptr %3, align 2
  br label %25

25:                                               ; preds = %24, %6
  ret void
}